; Function Attrs: mustprogress uwtable
define void @_ZN2pb11CppFeatures5ClearEv(ptr noundef nonnull align 8 dereferenceable(32) %this) unnamed_addr #3 align 2 {
entry:
  %0 = getelementptr inbounds i8, ptr %this, i64 16
  %legacy_closed_enum_ = getelementptr inbounds i8, ptr %this, i64 24
  store i8 0, ptr %legacy_closed_enum_, align 8
  store i32 0, ptr %0, align 8
  %_internal_metadata_ = getelementptr inbounds i8, ptr %this, i64 8
  %1 = load i64, ptr %_internal_metadata_, align 8
  %and.i = and i64 %1, 1
  %tobool.i.not = icmp eq i64 %and.i, 0
  br i1 %tobool.i.not, label %_ZN6google8protobuf8internal16InternalMetadata5ClearINS0_15UnknownFieldSetEEEvv.exit, label %if.then.i

if.then.i:                                        ; preds = %entry
  tail call void @_ZN6google8protobuf8internal16InternalMetadata7DoClearINS0_15UnknownFieldSetEEEvv(ptr noundef nonnull align 8 dereferenceable(8) %_internal_metadata_)
  br label %_ZN6google8protobuf8internal16InternalMetadata5ClearINS0_15UnknownFieldSetEEEvv.exit

_ZN6google8protobuf8internal16InternalMetadata5ClearINS0_15UnknownFieldSetEEEvv.exit: ; preds = %if.then.i, %entry
  ret void
}